target datalayout = "e-m:e-p270:32:32-p271:32:32-p272:64:64-i64:64-i128:128-f80:128-n8:16:32:64-S128"
target triple = "x86_64-pc-linux-gnu"

%struct.timespec = type { i64, i64 }
%struct.conmgr_callback_args_t = type { ptr, i32 }
%struct.sockaddr_storage = type { i16, [118 x i8], i64 }
%struct.service_connection_args_t = type { i32, %struct.timespec, %struct.sockaddr_storage, i32 }

@.str.3 = private unnamed_addr constant [9 x i8] c"slurmd.c\00", align 1
@.str.149 = private unnamed_addr constant [15 x i8] c"_on_extract_fd\00", align 1
@.str.151 = private unnamed_addr constant [38 x i8] c"%s: [fd:%d] connection work cancelled\00", align 1
@.str.152 = private unnamed_addr constant [65 x i8] c"%s: Rejecting partially open connection input_fd=%d output_fd=%d\00", align 1
@.str.153 = private unnamed_addr constant [43 x i8] c"%s: [fd:%d] getting socket peer failed: %s\00", align 1

; Function Attrs: nounwind uwtable
define internal void @_on_extract_fd(ptr %0, i32 %1, i32 noundef %2, i32 noundef %3, ptr noundef %4) #0 {
  %6 = alloca %struct.conmgr_callback_args_t, align 8
  %7 = alloca i32, align 4
  %8 = alloca i32, align 4
  %9 = alloca ptr, align 8
  %10 = alloca ptr, align 8
  %11 = alloca i32, align 4
  %12 = alloca i32, align 4
  %13 = getelementptr inbounds nuw { ptr, i32 }, ptr %6, i32 0, i32 0
  store ptr %0, ptr %13, align 8
  %14 = getelementptr inbounds nuw { ptr, i32 }, ptr %6, i32 0, i32 1
  store i32 %1, ptr %14, align 8
  store i32 %2, ptr %7, align 4
  store i32 %3, ptr %8, align 4
  store ptr %4, ptr %9, align 8
  call void @llvm.lifetime.start.p0(i64 8, ptr %10) #11
  store ptr null, ptr %10, align 8
  call void @llvm.lifetime.start.p0(i64 4, ptr %11) #11
  store i32 0, ptr %11, align 4
  %15 = getelementptr inbounds nuw %struct.conmgr_callback_args_t, ptr %6, i32 0, i32 1
  %16 = load i32, ptr %15, align 8
  %17 = icmp eq i32 %16, 3
  br i1 %17, label %18, label %35

18:                                               ; preds = %5
  br label %19

19:                                               ; preds = %18
  br label %20

20:                                               ; preds = %19
  %21 = call i32 @get_log_level()
  %22 = icmp sge i32 %21, 7
  br i1 %22, label %23, label %25

23:                                               ; preds = %20
  %24 = load i32, ptr %7, align 4
  call void (i32, ptr, ...) @log_var(i32 noundef 7, ptr noundef @.str.151, ptr noundef @.str.149, i32 noundef %24)
  br label %25

25:                                               ; preds = %23, %20
  br label %26

26:                                               ; preds = %25
  br label %27

27:                                               ; preds = %26
  br label %28

28:                                               ; preds = %27
  br label %29

29:                                               ; preds = %28
  %30 = load i32, ptr %7, align 4
  %31 = load i32, ptr %8, align 4
  %32 = icmp ne i32 %30, %31
  br i1 %32, label %33, label %34

33:                                               ; preds = %29
  call void @fd_close(ptr noundef %8)
  br label %34

34:                                               ; preds = %33, %29
  call void @fd_close(ptr noundef %7)
  store i32 1, ptr %12, align 4
  br label %79

35:                                               ; preds = %5
  %36 = load i32, ptr %7, align 4
  %37 = icmp slt i32 %36, 0
  br i1 %37, label %41, label %38

38:                                               ; preds = %35
  %39 = load i32, ptr %8, align 4
  %40 = icmp slt i32 %39, 0
  br i1 %40, label %41, label %50

41:                                               ; preds = %38, %35
  %42 = load i32, ptr %7, align 4
  %43 = load i32, ptr %8, align 4
  %44 = call i32 (ptr, ...) @error(ptr noundef @.str.152, ptr noundef @.str.149, i32 noundef %42, i32 noundef %43)
  %45 = load i32, ptr %7, align 4
  %46 = load i32, ptr %8, align 4
  %47 = icmp ne i32 %45, %46
  br i1 %47, label %48, label %49

48:                                               ; preds = %41
  call void @fd_close(ptr noundef %8)
  br label %49

49:                                               ; preds = %48, %41
  call void @fd_close(ptr noundef %7)
  store i32 1, ptr %12, align 4
  br label %79

50:                                               ; preds = %38
  %51 = call ptr @slurm_xcalloc(i64 noundef 1, i64 noundef 160, i1 noundef zeroext true, i1 noundef zeroext false, ptr noundef @.str.3, i32 noundef 2076, ptr noundef @.str.149)
  store ptr %51, ptr %10, align 8
  %52 = load ptr, ptr %10, align 8
  %53 = getelementptr inbounds nuw %struct.service_connection_args_t, ptr %52, i32 0, i32 0
  store i32 720021679, ptr %53, align 8
  %54 = load ptr, ptr %10, align 8
  %55 = getelementptr inbounds nuw %struct.service_connection_args_t, ptr %54, i32 0, i32 2
  %56 = getelementptr inbounds nuw %struct.sockaddr_storage, ptr %55, i32 0, i32 0
  store i16 0, ptr %56, align 8
  %57 = load i32, ptr %7, align 4
  %58 = load ptr, ptr %10, align 8
  %59 = getelementptr inbounds nuw %struct.service_connection_args_t, ptr %58, i32 0, i32 3
  store i32 %57, ptr %59, align 8
  %60 = load i32, ptr %7, align 4
  %61 = load ptr, ptr %10, align 8
  %62 = getelementptr inbounds nuw %struct.service_connection_args_t, ptr %61, i32 0, i32 2
  %63 = call i32 @slurm_get_peer_addr(i32 noundef %60, ptr noundef %62)
  store i32 %63, ptr %11, align 4
  %64 = icmp ne i32 %63, 0
  br i1 %64, label %65, label %72

65:                                               ; preds = %50
  %66 = load i32, ptr %7, align 4
  %67 = load i32, ptr %11, align 4
  %68 = call ptr @slurm_strerror(i32 noundef %67)
  %69 = call i32 (ptr, ...) @error(ptr noundef @.str.153, ptr noundef @.str.149, i32 noundef %66, ptr noundef %68)
  call void @fd_close(ptr noundef %7)
  %70 = load ptr, ptr %10, align 8
  %71 = getelementptr inbounds nuw %struct.service_connection_args_t, ptr %70, i32 0, i32 0
  store i32 -720021680, ptr %71, align 8
  call void @slurm_xfree(ptr noundef %10)
  store i32 1, ptr %12, align 4
  br label %79

72:                                               ; preds = %50
  %73 = load i32, ptr %7, align 4
  call void @fd_set_blocking(i32 noundef %73)
  %74 = load ptr, ptr %10, align 8
  %75 = getelementptr inbounds nuw { ptr, i32 }, ptr %6, i32 0, i32 0
  %76 = load ptr, ptr %75, align 8
  %77 = getelementptr inbounds nuw { ptr, i32 }, ptr %6, i32 0, i32 1
  %78 = load i32, ptr %77, align 8
  call void @_try_service_connection(ptr %76, i32 %78, ptr noundef %74)
  store i32 0, ptr %12, align 4
  br label %79

79:                                               ; preds = %72, %65, %49, %34
  call void @llvm.lifetime.end.p0(i64 4, ptr %11) #11
  call void @llvm.lifetime.end.p0(i64 8, ptr %10) #11
  %80 = load i32, ptr %12, align 4
  switch i32 %80, label %82 [
    i32 0, label %81
    i32 1, label %81
  ]

81:                                               ; preds = %79, %79
  ret void

82:                                               ; preds = %79
  unreachable
}