; Function Attrs: nounwind uwtable
define internal void @_on_extract_fd(ptr readnone captures(none) %0, i32 %1, i32 noundef %2, i32 noundef %3, ptr readnone captures(none) %4) #0 {
  %6 = alloca i32, align 4
  %7 = alloca i32, align 4
  %8 = alloca ptr, align 8
  store i32 %2, ptr %6, align 4
  store i32 %3, ptr %7, align 4
  call void @llvm.lifetime.start.p0(i64 8, ptr nonnull %8) #18
  %9 = icmp eq i32 %1, 3
  br i1 %9, label %10, label %17

10:                                               ; preds = %5
  %11 = tail call i32 @get_log_level() #18
  %12 = icmp sgt i32 %11, 6
  br i1 %12, label %13, label %14

13:                                               ; preds = %10
  tail call void (i32, ptr, ...) @log_var(i32 noundef 7, ptr noundef nonnull @.str.151, ptr noundef nonnull @.str.149, i32 noundef %2) #18
  br label %14

14:                                               ; preds = %13, %10
  %.not5 = icmp eq i32 %2, %3
  br i1 %.not5, label %16, label %15

15:                                               ; preds = %14
  call void @fd_close(ptr noundef nonnull %7) #18
  br label %16

16:                                               ; preds = %15, %14
  call void @fd_close(ptr noundef nonnull %6) #18
  br label %33

17:                                               ; preds = %5
  %18 = or i32 %3, %2
  %or.cond.not = icmp sgt i32 %18, -1
  br i1 %or.cond.not, label %23, label %19

19:                                               ; preds = %17
  %20 = tail call i32 (ptr, ...) @error(ptr noundef nonnull @.str.152, ptr noundef nonnull @.str.149, i32 noundef %2, i32 noundef %3) #18
  %.not4 = icmp eq i32 %2, %3
  br i1 %.not4, label %22, label %21

21:                                               ; preds = %19
  call void @fd_close(ptr noundef nonnull %7) #18
  br label %22

22:                                               ; preds = %21, %19
  call void @fd_close(ptr noundef nonnull %6) #18
  br label %33

23:                                               ; preds = %17
  %24 = tail call ptr @slurm_xcalloc(i64 noundef 1, i64 noundef 160, i1 noundef zeroext true, i1 noundef zeroext false, ptr noundef nonnull @.str.3, i32 noundef 2076, ptr noundef nonnull @.str.149) #18
  store ptr %24, ptr %8, align 8
  store i32 720021679, ptr %24, align 8
  %25 = getelementptr inbounds nuw i8, ptr %24, i64 24
  store i16 0, ptr %25, align 8
  %26 = load i32, ptr %6, align 4
  %27 = getelementptr inbounds nuw i8, ptr %24, i64 152
  store i32 %26, ptr %27, align 8
  %28 = tail call i32 @slurm_get_peer_addr(i32 noundef %26, ptr noundef nonnull %25) #18
  %.not = icmp eq i32 %28, 0
  br i1 %.not, label %32, label %29

29:                                               ; preds = %23
  %30 = tail call ptr @slurm_strerror(i32 noundef %28) #18
  %31 = tail call i32 (ptr, ...) @error(ptr noundef nonnull @.str.153, ptr noundef nonnull @.str.149, i32 noundef %26, ptr noundef %30) #18
  call void @fd_close(ptr noundef nonnull %6) #18
  store i32 -720021680, ptr %24, align 8
  call void @slurm_xfree(ptr noundef nonnull %8) #18
  br label %33

32:                                               ; preds = %23
  tail call void @fd_set_blocking(i32 noundef %26) #18
  tail call void @_try_service_connection(ptr poison, i32 poison, ptr noundef nonnull %24)
  br label %33

33:                                               ; preds = %32, %29, %22, %16
  call void @llvm.lifetime.end.p0(i64 8, ptr nonnull %8) #18
  ret void
}